target datalayout = "e-m:e-p270:32:32-p271:32:32-p272:64:64-i64:64-i128:128-f80:128-n8:16:32:64-S128"
target triple = "x86_64-pc-linux-gnu"

%struct.dt_imageio_module_format_t = type { %struct.dt_action_t, ptr, ptr, ptr, ptr, ptr, ptr, ptr, ptr, ptr, ptr, ptr, ptr, ptr, ptr, ptr, ptr, ptr, ptr, ptr, ptr, [128 x i8], ptr, ptr, ptr, i32, i32 }
%struct.dt_action_t = type { i32, ptr, ptr, ptr, ptr, ptr }
%struct.dt_imageio_png_gui_t = type { ptr, ptr }

@.str.9 = private unnamed_addr constant [39 x i8] c"plugins/imageio/format/png/compression\00", align 1

; Function Attrs: nounwind uwtable
define void @gui_reset(ptr noundef %0) #0 {
  %2 = alloca ptr, align 8
  %3 = alloca ptr, align 8
  store ptr %0, ptr %2, align 8, !tbaa !88
  call void @llvm.lifetime.start.p0(i64 8, ptr %3) #13
  %4 = load ptr, ptr %2, align 8, !tbaa !88
  %5 = getelementptr inbounds nuw %struct.dt_imageio_module_format_t, ptr %4, i32 0, i32 24
  %6 = load ptr, ptr %5, align 8, !tbaa !135
  store ptr %6, ptr %3, align 8, !tbaa !136
  %7 = load ptr, ptr %3, align 8, !tbaa !136
  %8 = getelementptr inbounds nuw %struct.dt_imageio_png_gui_t, ptr %7, i32 0, i32 0
  %9 = load ptr, ptr %8, align 8, !tbaa !138
  call void @dt_bauhaus_combobox_set(ptr noundef %9, i32 noundef 0)
  %10 = load ptr, ptr %3, align 8, !tbaa !136
  %11 = getelementptr inbounds nuw %struct.dt_imageio_png_gui_t, ptr %10, i32 0, i32 1
  %12 = load ptr, ptr %11, align 8, !tbaa !140
  %13 = call i32 @dt_confgen_get_int(ptr noundef @.str.9, i32 noundef 0)
  %14 = sitofp i32 %13 to float
  call void @dt_bauhaus_slider_set(ptr noundef %12, float noundef %14)
  call void @llvm.lifetime.end.p0(i64 8, ptr %3) #13
  ret void
}