; Function Attrs: nounwind uwtable
define void @gui_reset(ptr noundef readonly captures(none) %0) local_unnamed_addr #1 {
  %2 = getelementptr inbounds nuw i8, ptr %0, i64 352
  %3 = load ptr, ptr %2, align 8, !tbaa !67
  %4 = load ptr, ptr %3, align 8, !tbaa !68
  tail call void @dt_bauhaus_combobox_set(ptr noundef %4, i32 noundef 0) #20
  %5 = getelementptr inbounds nuw i8, ptr %3, i64 8
  %6 = load ptr, ptr %5, align 8, !tbaa !70
  %7 = tail call i32 @dt_confgen_get_int(ptr noundef nonnull @.str.9, i32 noundef 0) #20
  %8 = sitofp i32 %7 to float
  tail call void @dt_bauhaus_slider_set(ptr noundef %6, float noundef %8) #20
  ret void
}